; Function Attrs: nofree nosync nounwind memory(readwrite, inaccessiblemem: none) uwtable
define range(i32 0, 2) i32 @Gia_ManQuantVerify_rec(ptr noundef readonly captures(none) %0, i32 noundef %1, i32 noundef %2) local_unnamed_addr #0 {
  %4 = getelementptr i8, ptr %0, i64 176
  %5 = getelementptr i8, ptr %0, i64 616
  %.val29 = load i32, ptr %4, align 8, !tbaa !3
  %.val1930 = load ptr, ptr %5, align 8, !tbaa !28
  %6 = sext i32 %1 to i64
  %7 = getelementptr inbounds i32, ptr %.val1930, i64 %6
  %8 = load i32, ptr %7, align 4, !tbaa !29
  %.not31 = icmp eq i32 %8, %.val29
  br i1 %.not31, label %.loopexit, label %.lr.ph

.lr.ph:                                           ; preds = %3
  %9 = getelementptr i8, ptr %0, i64 32
  br label %10

10:                                               ; preds = %.lr.ph, %tailrecurse
  %11 = phi ptr [ %7, %.lr.ph ], [ %31, %tailrecurse ]
  %12 = phi i64 [ %6, %.lr.ph ], [ %30, %tailrecurse ]
  %.val33 = phi i32 [ %.val29, %.lr.ph ], [ %.val, %tailrecurse ]
  %.tr2732 = phi i32 [ %1, %.lr.ph ], [ %29, %tailrecurse ]
  store i32 %.val33, ptr %11, align 4, !tbaa !29
  %.val22 = load ptr, ptr %9, align 8, !tbaa !30
  %13 = getelementptr inbounds %struct.Gia_Obj_t_, ptr %.val22, i64 %12
  %.val23 = load i64, ptr %13, align 4
  %14 = and i64 %.val23, 2684354559
  %narrow.i.not = icmp eq i64 %14, 2684354559
  br i1 %narrow.i.not, label %15, label %21

15:                                               ; preds = %10
  %16 = lshr i64 %.val23, 32
  %17 = trunc nuw i64 %16 to i32
  %18 = and i32 %17, 536870911
  %19 = icmp eq i32 %18, %2
  %20 = zext i1 %19 to i32
  br label %.loopexit

21:                                               ; preds = %10
  %22 = trunc i64 %.val23 to i32
  %23 = and i32 %22, 536870911
  %24 = sub nsw i32 %.tr2732, %23
  %25 = tail call i32 @Gia_ManQuantVerify_rec(ptr noundef nonnull %0, i32 noundef %24, i32 noundef %2)
  %.not18 = icmp eq i32 %25, 0
  br i1 %.not18, label %tailrecurse, label %.loopexit

tailrecurse:                                      ; preds = %21
  %.val26 = load i64, ptr %13, align 4
  %26 = lshr i64 %.val26, 32
  %27 = trunc nuw i64 %26 to i32
  %28 = and i32 %27, 536870911
  %29 = sub nsw i32 %.tr2732, %28
  %.val = load i32, ptr %4, align 8, !tbaa !3
  %.val19 = load ptr, ptr %5, align 8, !tbaa !28
  %30 = sext i32 %29 to i64
  %31 = getelementptr inbounds i32, ptr %.val19, i64 %30
  %32 = load i32, ptr %31, align 4, !tbaa !29
  %.not = icmp eq i32 %32, %.val
  br i1 %.not, label %.loopexit, label %10

.loopexit:                                        ; preds = %tailrecurse, %21, %3, %15
  %.0 = phi i32 [ %20, %15 ], [ 0, %3 ], [ 0, %tailrecurse ], [ 1, %21 ]
  ret i32 %.0
}